; Function Attrs: nofree nosync nounwind memory(readwrite, inaccessiblemem: none) uwtable
define void @Iso_ManObjCount_rec(ptr noundef %0, ptr noundef captures(none) %1, ptr noundef %2, ptr noundef %3) local_unnamed_addr #5 {
  %5 = getelementptr i8, ptr %1, i64 24
  %.val = load i64, ptr %5, align 8
  %6 = and i64 %.val, 7
  %.not = icmp eq i64 %6, 2
  br i1 %.not, label %common.ret26, label %7

7:                                                ; preds = %4
  %8 = getelementptr i8, ptr %0, i64 312
  %.val18 = load i32, ptr %8, align 8, !tbaa !16
  %9 = getelementptr i8, ptr %1, i64 32
  %.val19 = load i32, ptr %9, align 8, !tbaa !31
  %.not25 = icmp eq i32 %.val19, %.val18
  br i1 %.not25, label %common.ret26, label %10

common.ret26:                                     ; preds = %7, %4, %10
  ret void

10:                                               ; preds = %7
  store i32 %.val18, ptr %9, align 8, !tbaa !31
  %11 = getelementptr i8, ptr %1, i64 8
  %.val21 = load ptr, ptr %11, align 8, !tbaa !32
  %12 = ptrtoint ptr %.val21 to i64
  %13 = and i64 %12, -2
  %14 = inttoptr i64 %13 to ptr
  tail call void @Iso_ManObjCount_rec(ptr noundef nonnull %0, ptr noundef %14, ptr noundef %2, ptr noundef %3)
  %15 = getelementptr i8, ptr %1, i64 16
  %.val22 = load ptr, ptr %15, align 8, !tbaa !33
  %16 = ptrtoint ptr %.val22 to i64
  %17 = and i64 %16, -2
  %18 = inttoptr i64 %17 to ptr
  tail call void @Iso_ManObjCount_rec(ptr noundef nonnull %0, ptr noundef %18, ptr noundef %2, ptr noundef %3)
  %.val23 = load ptr, ptr %11, align 8, !tbaa !32
  %19 = ptrtoint ptr %.val23 to i64
  %20 = trunc i64 %19 to i32
  %21 = and i32 %20, 1
  %.val24 = load ptr, ptr %15, align 8, !tbaa !33
  %22 = ptrtoint ptr %.val24 to i64
  %23 = trunc i64 %22 to i32
  %24 = and i32 %23, 1
  %25 = load i32, ptr %3, align 4, !tbaa !5
  %26 = add i32 %21, %25
  %27 = add i32 %26, %24
  store i32 %27, ptr %3, align 4, !tbaa !5
  %28 = load i32, ptr %2, align 4, !tbaa !5
  %29 = add nsw i32 %28, 1
  store i32 %29, ptr %2, align 4, !tbaa !5
  br label %common.ret26
}